; Function Attrs: nofree nosync nounwind memory(readwrite, inaccessiblemem: none) uwtable
define internal fastcc range(i32 0, 2) i32 @check_node_in_look_behind(ptr noundef readonly captures(none) %0, i32 noundef range(i32 0, 2) %1, ptr noundef nonnull %2) unnamed_addr #15 {
  %4 = load i32, ptr %0, align 8, !tbaa !20
  %5 = icmp ugt i32 %4, 10
  br i1 %5, label %.critedge, label %.lr.ph

.lr.ph:                                           ; preds = %3
  %6 = zext nneg i32 %1 to i64
  %7 = getelementptr inbounds nuw [2 x i32], ptr @check_node_in_look_behind.anchor_mask, i64 0, i64 %6
  %8 = getelementptr inbounds nuw [2 x i32], ptr @check_node_in_look_behind.bag_mask, i64 0, i64 %6
  br label %9

9:                                                ; preds = %.lr.ph, %tailrecurse.backedge
  %10 = phi i32 [ %4, %.lr.ph ], [ %22, %tailrecurse.backedge ]
  %.tr87 = phi ptr [ %0, %.lr.ph ], [ %.tr.be, %tailrecurse.backedge ]
  switch i32 %10, label %.critedge [
    i32 7, label %.preheader
    i32 8, label %.preheader
    i32 4, label %19
    i32 5, label %24
    i32 6, label %50
    i32 10, label %59
    i32 9, label %72
  ]

.preheader:                                       ; preds = %9, %9
  br label %11

11:                                               ; preds = %.preheader, %16
  %.051 = phi ptr [ %18, %16 ], [ %.tr87, %.preheader ]
  %12 = getelementptr inbounds nuw i8, ptr %.051, i64 16
  %13 = load ptr, ptr %12, align 8, !tbaa !20
  %14 = tail call fastcc i32 @check_node_in_look_behind(ptr noundef %13, i32 noundef %1, ptr noundef %2)
  %15 = icmp eq i32 %14, 0
  br i1 %15, label %16, label %.critedge

16:                                               ; preds = %11
  %17 = getelementptr inbounds nuw i8, ptr %.051, i64 24
  %18 = load ptr, ptr %17, align 8, !tbaa !20
  %.not74 = icmp eq ptr %18, null
  br i1 %.not74, label %.critedge, label %11, !llvm.loop !274

19:                                               ; preds = %9
  %20 = getelementptr inbounds nuw i8, ptr %.tr87, i64 16
  %21 = load ptr, ptr %20, align 8, !tbaa !20
  br label %tailrecurse.backedge

tailrecurse.backedge:                             ; preds = %19, %47, %56
  %.tr.be = phi ptr [ %21, %19 ], [ %49, %47 ], [ %58, %56 ]
  %22 = load i32, ptr %.tr.be, align 8, !tbaa !20
  %23 = icmp ugt i32 %22, 10
  br i1 %23, label %.critedge, label %9

24:                                               ; preds = %9
  %25 = getelementptr inbounds nuw i8, ptr %.tr87, i64 24
  %26 = load i32, ptr %25, align 8, !tbaa !98
  %27 = shl nuw i32 1, %26
  %28 = load i32, ptr %8, align 4, !tbaa !4
  %29 = and i32 %27, %28
  %30 = icmp eq i32 %29, 0
  br i1 %30, label %.critedge, label %31

31:                                               ; preds = %24
  %32 = getelementptr inbounds nuw i8, ptr %.tr87, i64 16
  %33 = load ptr, ptr %32, align 8, !tbaa !20
  %34 = tail call fastcc i32 @check_node_in_look_behind(ptr noundef %33, i32 noundef %1, ptr noundef %2)
  %.not67 = icmp eq i32 %34, 0
  br i1 %.not67, label %35, label %.critedge

35:                                               ; preds = %31
  %36 = load i32, ptr %25, align 8, !tbaa !98
  switch i32 %36, label %.critedge [
    i32 0, label %37
    i32 3, label %42
  ]

37:                                               ; preds = %35
  %38 = getelementptr inbounds nuw i8, ptr %.tr87, i64 4
  %39 = load i32, ptr %38, align 4, !tbaa !20
  %40 = and i32 %39, 67174528
  %or.cond75 = icmp eq i32 %40, 0
  br i1 %or.cond75, label %.critedge, label %41

41:                                               ; preds = %37
  store i32 1, ptr %2, align 4, !tbaa !4
  br label %.critedge

42:                                               ; preds = %35
  %43 = getelementptr inbounds nuw i8, ptr %.tr87, i64 32
  %44 = load ptr, ptr %43, align 8, !tbaa !20
  %.not68 = icmp eq ptr %44, null
  br i1 %.not68, label %47, label %45

45:                                               ; preds = %42
  %46 = tail call fastcc i32 @check_node_in_look_behind(ptr noundef nonnull %44, i32 noundef %1, ptr noundef %2)
  %.not69 = icmp eq i32 %46, 0
  br i1 %.not69, label %47, label %.critedge

47:                                               ; preds = %45, %42
  %48 = getelementptr inbounds nuw i8, ptr %.tr87, i64 40
  %49 = load ptr, ptr %48, align 8, !tbaa !20
  %.not70 = icmp eq ptr %49, null
  br i1 %.not70, label %.critedge, label %tailrecurse.backedge

50:                                               ; preds = %9
  %51 = getelementptr inbounds nuw i8, ptr %.tr87, i64 24
  %52 = load i32, ptr %51, align 8, !tbaa !20
  %53 = load i32, ptr %7, align 4, !tbaa !4
  %54 = and i32 %53, %52
  %55 = icmp eq i32 %54, 0
  br i1 %55, label %.critedge, label %56

56:                                               ; preds = %50
  %57 = getelementptr inbounds nuw i8, ptr %.tr87, i64 16
  %58 = load ptr, ptr %57, align 8, !tbaa !20
  %.not66 = icmp eq ptr %58, null
  br i1 %.not66, label %.critedge, label %tailrecurse.backedge

59:                                               ; preds = %9
  %60 = getelementptr inbounds nuw i8, ptr %.tr87, i64 4
  %61 = load i32, ptr %60, align 4, !tbaa !20
  %62 = and i32 %61, 16777216
  %.not65 = icmp eq i32 %62, 0
  br i1 %.not65, label %63, label %.critedge

63:                                               ; preds = %59
  %64 = getelementptr inbounds nuw i8, ptr %.tr87, i64 16
  %65 = load i32, ptr %64, align 8, !tbaa !159
  %66 = icmp eq i32 %65, 1
  br i1 %66, label %67, label %.critedge

67:                                               ; preds = %63
  %68 = getelementptr inbounds nuw i8, ptr %.tr87, i64 20
  %69 = load i32, ptr %68, align 4, !tbaa !161
  %70 = icmp eq i32 %69, 0
  br i1 %70, label %71, label %.critedge

71:                                               ; preds = %67
  store i32 1, ptr %2, align 4, !tbaa !4
  br label %.critedge

72:                                               ; preds = %9
  %73 = getelementptr inbounds nuw i8, ptr %.tr87, i64 4
  %74 = load i32, ptr %73, align 4, !tbaa !20
  %75 = and i32 %74, 64
  %.not = icmp eq i32 %75, 0
  br i1 %.not, label %77, label %76

76:                                               ; preds = %72
  store i32 1, ptr %2, align 4, !tbaa !4
  br label %.critedge

77:                                               ; preds = %72
  %78 = getelementptr inbounds nuw i8, ptr %.tr87, i64 16
  %79 = load ptr, ptr %78, align 8, !tbaa !20
  %80 = tail call fastcc i32 @check_called_node_in_look_behind(ptr noundef %79)
  br label %.critedge

.critedge:                                        ; preds = %tailrecurse.backedge, %50, %9, %56, %24, %31, %45, %35, %47, %16, %11, %3, %41, %37, %77, %76, %71, %67, %63, %59
  %.0 = phi i32 [ 1, %59 ], [ 0, %76 ], [ %80, %77 ], [ 0, %71 ], [ 0, %67 ], [ 0, %63 ], [ 0, %37 ], [ 0, %41 ], [ 1, %3 ], [ 1, %11 ], [ 0, %16 ], [ 1, %tailrecurse.backedge ], [ 1, %50 ], [ 0, %9 ], [ 0, %56 ], [ 1, %24 ], [ 1, %31 ], [ 1, %45 ], [ 0, %35 ], [ 0, %47 ]
  ret i32 %.0
}